target datalayout = "e-m:e-p270:32:32-p271:32:32-p272:64:64-i64:64-i128:128-f80:128-n8:16:32:64-S128"
target triple = "x86_64-pc-linux-gnu"

%struct.VMAFMotionData = type { [5 x i16], i32, i32, i64, [2 x ptr], ptr, double, i64, %struct.VMAFMotionDSPContext }
%struct.VMAFMotionDSPContext = type { ptr, ptr, ptr }
%struct.AVFilterContext = type { ptr, ptr, ptr, ptr, ptr, i32, ptr, ptr, i32, ptr, ptr, i32, i32, ptr, ptr, ptr, ptr, i32, ptr, i32, i32 }
%struct.VMAFMotionContext = type { ptr, %struct.VMAFMotionData, ptr, ptr }

@.str.10 = private unnamed_addr constant [2 x i8] c"-\00", align 1
@stdout = external global ptr, align 8
@.str.11 = private unnamed_addr constant [2 x i8] c"w\00", align 1
@.str.12 = private unnamed_addr constant [34 x i8] c"Could not open stats file %s: %s\0A\00", align 1

; Function Attrs: inlinehint nounwind uwtable
define internal ptr @av_make_error_string(ptr noundef %0, i64 noundef %1, i32 noundef %2) #8 {
  %4 = alloca ptr, align 8
  %5 = alloca i64, align 8
  %6 = alloca i32, align 4
  store ptr %0, ptr %4, align 8, !tbaa !18
  store i64 %1, ptr %5, align 8, !tbaa !30
  store i32 %2, ptr %6, align 4, !tbaa !23
  %7 = load i32, ptr %6, align 4, !tbaa !23
  %8 = load ptr, ptr %4, align 8, !tbaa !18
  %9 = load i64, ptr %5, align 8, !tbaa !30
  %10 = call i32 @av_strerror(i32 noundef %7, ptr noundef %8, i64 noundef %9)
  %11 = load ptr, ptr %4, align 8, !tbaa !18
  ret ptr %11
}

; Function Attrs: cold nounwind optsize uwtable
define internal i32 @init(ptr noundef %0) #4 {
  %2 = alloca i32, align 4
  %3 = alloca ptr, align 8
  %4 = alloca ptr, align 8
  %5 = alloca i32, align 4
  %6 = alloca [64 x i8], align 1
  %7 = alloca i32, align 4
  store ptr %0, ptr %3, align 8, !tbaa !47
  call void @llvm.lifetime.start.p0(i64 8, ptr %4) #10
  %8 = load ptr, ptr %3, align 8, !tbaa !47
  %9 = getelementptr inbounds nuw %struct.AVFilterContext, ptr %8, i32 0, i32 9
  %10 = load ptr, ptr %9, align 8, !tbaa !49
  store ptr %10, ptr %4, align 8, !tbaa !60
  %11 = load ptr, ptr %4, align 8, !tbaa !60
  %12 = getelementptr inbounds nuw %struct.VMAFMotionContext, ptr %11, i32 0, i32 3
  %13 = load ptr, ptr %12, align 8, !tbaa !62
  %14 = icmp ne ptr %13, null
  br i1 %14, label %15, label %50

15:                                               ; preds = %1
  %16 = load ptr, ptr %4, align 8, !tbaa !60
  %17 = getelementptr inbounds nuw %struct.VMAFMotionContext, ptr %16, i32 0, i32 3
  %18 = load ptr, ptr %17, align 8, !tbaa !62
  %19 = call i32 @strcmp(ptr noundef %18, ptr noundef @.str.10) #11
  %20 = icmp ne i32 %19, 0
  br i1 %20, label %25, label %21

21:                                               ; preds = %15
  %22 = load ptr, ptr @stdout, align 8, !tbaa !65
  %23 = load ptr, ptr %4, align 8, !tbaa !60
  %24 = getelementptr inbounds nuw %struct.VMAFMotionContext, ptr %23, i32 0, i32 2
  store ptr %22, ptr %24, align 8, !tbaa !66
  br label %49

25:                                               ; preds = %15
  %26 = load ptr, ptr %4, align 8, !tbaa !60
  %27 = getelementptr inbounds nuw %struct.VMAFMotionContext, ptr %26, i32 0, i32 3
  %28 = load ptr, ptr %27, align 8, !tbaa !62
  %29 = call ptr @avpriv_fopen_utf8(ptr noundef %28, ptr noundef @.str.11)
  %30 = load ptr, ptr %4, align 8, !tbaa !60
  %31 = getelementptr inbounds nuw %struct.VMAFMotionContext, ptr %30, i32 0, i32 2
  store ptr %29, ptr %31, align 8, !tbaa !66
  %32 = load ptr, ptr %4, align 8, !tbaa !60
  %33 = getelementptr inbounds nuw %struct.VMAFMotionContext, ptr %32, i32 0, i32 2
  %34 = load ptr, ptr %33, align 8, !tbaa !66
  %35 = icmp ne ptr %34, null
  br i1 %35, label %48, label %36

36:                                               ; preds = %25
  call void @llvm.lifetime.start.p0(i64 4, ptr %5) #10
  %37 = call ptr @__errno_location() #12
  %38 = load i32, ptr %37, align 4, !tbaa !23
  %39 = sub nsw i32 0, %38
  store i32 %39, ptr %5, align 4, !tbaa !23
  %40 = load ptr, ptr %3, align 8, !tbaa !47
  %41 = load ptr, ptr %4, align 8, !tbaa !60
  %42 = getelementptr inbounds nuw %struct.VMAFMotionContext, ptr %41, i32 0, i32 3
  %43 = load ptr, ptr %42, align 8, !tbaa !62
  call void @llvm.memset.p0.i64(ptr align 1 %6, i8 0, i64 64, i1 false)
  %44 = getelementptr inbounds [64 x i8], ptr %6, i64 0, i64 0
  %45 = load i32, ptr %5, align 4, !tbaa !23
  %46 = call ptr @av_make_error_string(ptr noundef %44, i64 noundef 64, i32 noundef %45)
  call void (ptr, i32, ptr, ...) @av_log(ptr noundef %40, i32 noundef 16, ptr noundef @.str.12, ptr noundef %43, ptr noundef %46)
  %47 = load i32, ptr %5, align 4, !tbaa !23
  store i32 %47, ptr %2, align 4
  store i32 1, ptr %7, align 4
  call void @llvm.lifetime.end.p0(i64 4, ptr %5) #10
  br label %51

48:                                               ; preds = %25
  br label %49

49:                                               ; preds = %48, %21
  br label %50

50:                                               ; preds = %49, %1
  store i32 0, ptr %2, align 4
  store i32 1, ptr %7, align 4
  br label %51

51:                                               ; preds = %50, %36
  call void @llvm.lifetime.end.p0(i64 8, ptr %4) #10
  %52 = load i32, ptr %2, align 4
  ret i32 %52
}