; Function Attrs: cold nounwind optsize uwtable
define internal range(i32 -2147483647, -2147483648) i32 @init(ptr noundef %0) #4 {
  %2 = alloca [64 x i8], align 1
  %3 = getelementptr inbounds nuw i8, ptr %0, i64 72
  %4 = load ptr, ptr %3, align 8, !tbaa !37
  %5 = getelementptr inbounds nuw i8, ptr %4, i64 112
  %6 = load ptr, ptr %5, align 8, !tbaa !48
  %.not = icmp eq ptr %6, null
  br i1 %.not, label %22, label %sub_0

sub_0:                                            ; preds = %1
  %7 = load i8, ptr %6, align 1
  %.not14 = icmp eq i8 %7, 45
  br i1 %.not14, label %.tail, label %.tail.thread

.tail:                                            ; preds = %sub_0
  %8 = getelementptr inbounds nuw i8, ptr %6, i64 1
  %9 = load i8, ptr %8, align 1
  %10 = icmp eq i8 %9, 0
  br i1 %10, label %11, label %.tail.thread

11:                                               ; preds = %.tail
  %12 = load ptr, ptr @stdout, align 8, !tbaa !51
  %13 = getelementptr inbounds nuw i8, ptr %4, i64 104
  store ptr %12, ptr %13, align 8, !tbaa !52
  br label %22

.tail.thread:                                     ; preds = %sub_0, %.tail
  %14 = tail call ptr @avpriv_fopen_utf8(ptr noundef nonnull %6, ptr noundef nonnull @.str.11) #10
  %15 = getelementptr inbounds nuw i8, ptr %4, i64 104
  store ptr %14, ptr %15, align 8, !tbaa !52
  %.not13 = icmp eq ptr %14, null
  br i1 %.not13, label %16, label %22

16:                                               ; preds = %.tail.thread
  %17 = tail call ptr @__errno_location() #11
  %18 = load i32, ptr %17, align 4, !tbaa !19
  %19 = sub nsw i32 0, %18
  %20 = load ptr, ptr %5, align 8, !tbaa !48
  call void @llvm.memset.p0.i64(ptr noundef nonnull align 1 dereferenceable(64) %2, i8 0, i64 64, i1 false)
  %21 = call i32 @av_strerror(i32 noundef range(i32 -2147483647, -2147483648) %19, ptr noundef nonnull %2, i64 noundef 64) #10
  call void (ptr, i32, ptr, ...) @av_log(ptr noundef nonnull %0, i32 noundef 16, ptr noundef nonnull @.str.12, ptr noundef %20, ptr noundef nonnull %2) #10
  br label %22

22:                                               ; preds = %1, %.tail.thread, %11, %16
  %.0 = phi i32 [ %19, %16 ], [ 0, %11 ], [ 0, %.tail.thread ], [ 0, %1 ]
  ret i32 %.0
}